; ModuleID = '43/1417.c'
source_filename = "43/1417.c"
target datalayout = "e-m:e-p270:32:32-p271:32:32-p272:64:64-i64:64-f80:128-n8:16:32:64-S128"
target triple = "x86_64-pc-linux-gnu"

@.str = private unnamed_addr constant [3 x i8] c"%d\00", align 1
@.str.1 = private unnamed_addr constant [7 x i8] c"%d %d\0A\00", align 1

; Function Attrs: noinline nounwind uwtable
define dso_local i32 @main() #0 {
  %1 = alloca i32, align 4
  %2 = alloca i32, align 4
  %3 = alloca i32, align 4
  %4 = alloca i32, align 4
  %5 = alloca i32, align 4
  %6 = alloca i32, align 4
  %7 = alloca i32, align 4
  %8 = alloca i32, align 4
  %9 = alloca i32, align 4
  %10 = alloca i32, align 4
  %11 = alloca i32, align 4
  %12 = alloca i32, align 4
  %13 = alloca i32, align 4
  store i32 0, i32* %1, align 4
  store i32 2, i32* %2, align 4
  %14 = call i32 (i8*, ...) @__isoc99_scanf(i8* getelementptr inbounds ([3 x i8], [3 x i8]* @.str, i64 0, i64 0), i32* %4)
  %15 = load i32, i32* %4, align 4
  %16 = sdiv i32 %15, 2
  store i32 %16, i32* %5, align 4
  br label %17

17:                                               ; preds = %81, %0
  %18 = load i32, i32* %2, align 4
  %19 = load i32, i32* %5, align 4
  %20 = icmp sle i32 %18, %19
  br i1 %20, label %21, label %84

21:                                               ; preds = %17
  %22 = load i32, i32* %4, align 4
  %23 = load i32, i32* %2, align 4
  %24 = sub nsw i32 %22, %23
  store i32 %24, i32* %3, align 4
  store i32 2, i32* %6, align 4
  store i32 1, i32* %9, align 4
  store i32 2, i32* %10, align 4
  store i32 1, i32* %13, align 4
  br label %25

25:                                               ; preds = %41, %21
  %26 = load i32, i32* %6, align 4
  %27 = load i32, i32* %2, align 4
  %28 = icmp slt i32 %26, %27
  br i1 %28, label %29, label %47

29:                                               ; preds = %25
  %30 = load i32, i32* %2, align 4
  %31 = load i32, i32* %2, align 4
  %32 = load i32, i32* %6, align 4
  %33 = sdiv i32 %31, %32
  %34 = load i32, i32* %6, align 4
  %35 = mul nsw i32 %33, %34
  %36 = sub nsw i32 %30, %35
  store i32 %36, i32* %7, align 4
  %37 = load i32, i32* %7, align 4
  %38 = icmp eq i32 %37, 0
  br i1 %38, label %39, label %40

39:                                               ; preds = %29
  store i32 0, i32* %8, align 4
  br label %41

40:                                               ; preds = %29
  store i32 1, i32* %8, align 4
  br label %41

41:                                               ; preds = %40, %39
  %42 = load i32, i32* %9, align 4
  %43 = load i32, i32* %8, align 4
  %44 = mul nsw i32 %42, %43
  store i32 %44, i32* %9, align 4
  %45 = load i32, i32* %6, align 4
  %46 = add nsw i32 %45, 1
  store i32 %46, i32* %6, align 4
  br label %25

47:                                               ; preds = %25
  br label %48

48:                                               ; preds = %64, %47
  %49 = load i32, i32* %10, align 4
  %50 = load i32, i32* %3, align 4
  %51 = icmp slt i32 %49, %50
  br i1 %51, label %52, label %70

52:                                               ; preds = %48
  %53 = load i32, i32* %3, align 4
  %54 = load i32, i32* %3, align 4
  %55 = load i32, i32* %10, align 4
  %56 = sdiv i32 %54, %55
  %57 = load i32, i32* %10, align 4
  %58 = mul nsw i32 %56, %57
  %59 = sub nsw i32 %53, %58
  store i32 %59, i32* %11, align 4
  %60 = load i32, i32* %11, align 4
  %61 = icmp eq i32 %60, 0
  br i1 %61, label %62, label %63

62:                                               ; preds = %52
  store i32 0, i32* %12, align 4
  br label %64

63:                                               ; preds = %52
  store i32 1, i32* %12, align 4
  br label %64

64:                                               ; preds = %63, %62
  %65 = load i32, i32* %13, align 4
  %66 = load i32, i32* %12, align 4
  %67 = mul nsw i32 %65, %66
  store i32 %67, i32* %13, align 4
  %68 = load i32, i32* %10, align 4
  %69 = add nsw i32 %68, 1
  store i32 %69, i32* %10, align 4
  br label %48

70:                                               ; preds = %48
  %71 = load i32, i32* %9, align 4
  %72 = icmp eq i32 %71, 1
  br i1 %72, label %73, label %81

73:                                               ; preds = %70
  %74 = load i32, i32* %13, align 4
  %75 = icmp eq i32 %74, 1
  br i1 %75, label %76, label %80

76:                                               ; preds = %73
  %77 = load i32, i32* %2, align 4
  %78 = load i32, i32* %3, align 4
  %79 = call i32 (i8*, ...) @printf(i8* getelementptr inbounds ([7 x i8], [7 x i8]* @.str.1, i64 0, i64 0), i32 %77, i32 %78)
  br label %80

80:                                               ; preds = %76, %73
  br label %81

81:                                               ; preds = %80, %70
  %82 = load i32, i32* %2, align 4
  %83 = add nsw i32 %82, 1
  store i32 %83, i32* %2, align 4
  br label %17

84:                                               ; preds = %17
  ret i32 0
}

declare dso_local i32 @__isoc99_scanf(i8*, ...) #1

declare dso_local i32 @printf(i8*, ...) #1


!llvm.module.flags = !{!0}
!llvm.ident = !{!1}

!0 = !{i32 1, !"wchar_size", i32 4}
!1 = !{!"clang version 10.0.0-4ubuntu1 "}
